; Function Attrs: null_pointer_is_valid sspstrong uwtable
define internal void @dissect_zcl_groups_attr_data(ptr noundef %0, ptr noundef %1, ptr noundef %2, i16 noundef zeroext %3, i32 noundef %4, i1 noundef zeroext %5) #0 {
  %cond = icmp eq i16 %3, 0
  br i1 %cond, label %7, label %13

7:                                                ; preds = %6
  %8 = load i32, ptr @hf_zbee_zcl_groups_group_name_support, align 4
  %9 = load i32, ptr %2, align 4
  %10 = tail call ptr @proto_tree_add_item(ptr noundef %0, i32 noundef %8, ptr noundef %1, i32 noundef %9, i32 noundef 1, i32 noundef -2147483648)
  %11 = load i32, ptr %2, align 4
  %12 = add i32 %11, 1
  store i32 %12, ptr %2, align 4
  br label %14

13:                                               ; preds = %6
  tail call void @dissect_zcl_attr_data(ptr noundef %1, ptr noundef %0, ptr noundef %2, i32 noundef %4, i1 noundef zeroext %5)
  br label %14

14:                                               ; preds = %13, %7
  ret void
}